; Function Attrs: mustprogress nofree norecurse nounwind willreturn memory(readwrite, inaccessiblemem: none) uwtable
define void @ff_amf_write_field_name(ptr noundef captures(none) %0, ptr noundef readonly captures(none) %1) local_unnamed_addr #1 {
  %3 = tail call i64 @strlen(ptr noundef nonnull dereferenceable(1) %1) #15
  %4 = trunc i64 %3 to i16
  %5 = tail call i16 @llvm.bswap.i16(i16 %4)
  %6 = load ptr, ptr %0, align 8, !tbaa !4
  store i16 %5, ptr %6, align 1, !tbaa !9
  %7 = load ptr, ptr %0, align 8, !tbaa !4
  %8 = getelementptr inbounds nuw i8, ptr %7, i64 2
  store ptr %8, ptr %0, align 8, !tbaa !4
  %9 = tail call i64 @strlen(ptr noundef nonnull dereferenceable(1) %1) #15
  %10 = and i64 %9, 4294967295
  tail call void @llvm.memcpy.p0.p0.i64(ptr nonnull align 1 %8, ptr nonnull align 1 %1, i64 %10, i1 false)
  %11 = load ptr, ptr %0, align 8, !tbaa !4
  %12 = getelementptr inbounds nuw i8, ptr %11, i64 %10
  store ptr %12, ptr %0, align 8, !tbaa !4
  ret void
}